target datalayout = "e-m:e-p270:32:32-p271:32:32-p272:64:64-i64:64-i128:128-f80:128-n8:16:32:64-S128"
target triple = "x86_64-pc-linux-gnu"

@.str.255 = private unnamed_addr constant [10 x i8] c"Bluetooth\00", align 1
@.str.330 = private unnamed_addr constant [48 x i8] c"Version of profile supported by this dissector.\00", align 1
@.str.332 = private unnamed_addr constant [22 x i8] c"Force SCMS-T decoding\00", align 1
@.str.335 = private unnamed_addr constant [12 x i8] c"Force codec\00", align 1
@proto_register_btvdp.ett = internal global [1 x ptr] [ptr @ett_btvdp], align 8
@.str.359 = private unnamed_addr constant [22 x i8] c"Bluetooth VDP Profile\00", align 1
@.str.360 = private unnamed_addr constant [7 x i8] c"BT VDP\00", align 1
@.str.361 = private unnamed_addr constant [6 x i8] c"btvdp\00", align 1
@proto_btvdp = internal global i32 0, align 4
@btvdp_handle = internal global ptr null, align 8
@.str.362 = private unnamed_addr constant [12 x i8] c"vdp.version\00", align 1
@.str.363 = private unnamed_addr constant [35 x i8] c"Bluetooth Profile VDP version: 1.1\00", align 1
@.str.364 = private unnamed_addr constant [30 x i8] c"vdp.content_protection.scms_t\00", align 1
@.str.365 = private unnamed_addr constant [61 x i8] c"Force decoding stream as VDP with Content Protection SCMS-T \00", align 1
@force_vdp_scms_t = internal global i8 0, align 1
@.str.366 = private unnamed_addr constant [10 x i8] c"vdp.codec\00", align 1
@.str.367 = private unnamed_addr constant [50 x i8] c"Force decoding stream as VDP with specified codec\00", align 1
@force_vdp_codec = internal global i32 1, align 4

; Function Attrs: null_pointer_is_valid sspstrong uwtable
define hidden void @proto_register_btvdp() #0 {
  %1 = alloca ptr, align 8
  %2 = alloca ptr, align 8
  call void @llvm.lifetime.start.p0(i64 8, ptr %1) #7
  call void @llvm.lifetime.start.p0(i64 8, ptr %2) #7
  %3 = call i32 @proto_register_protocol(ptr noundef @.str.359, ptr noundef @.str.360, ptr noundef @.str.361)
  store i32 %3, ptr @proto_btvdp, align 4
  %4 = load i32, ptr @proto_btvdp, align 4
  %5 = call ptr @register_dissector(ptr noundef @.str.361, ptr noundef @dissect_btvdp, i32 noundef %4)
  store ptr %5, ptr @btvdp_handle, align 8
  %6 = load i32, ptr @proto_btvdp, align 4
  call void @proto_register_field_array(i32 noundef %6, ptr noundef @proto_register_btvdp.hf, i32 noundef 9)
  call void @proto_register_subtree_array(ptr noundef @proto_register_btvdp.ett, i32 noundef 1)
  %7 = load i32, ptr @proto_btvdp, align 4
  %8 = call ptr @expert_register_protocol(i32 noundef %7)
  store ptr %8, ptr %2, align 8
  %9 = load ptr, ptr %2, align 8
  call void @expert_register_field_array(ptr noundef %9, ptr noundef @proto_register_btvdp.ei, i32 noundef 3)
  %10 = load i32, ptr @proto_btvdp, align 4
  %11 = call ptr @prefs_register_protocol_subtree(ptr noundef @.str.255, i32 noundef %10, ptr noundef null)
  store ptr %11, ptr %1, align 8
  %12 = load ptr, ptr %1, align 8
  call void @prefs_register_static_text_preference(ptr noundef %12, ptr noundef @.str.362, ptr noundef @.str.363, ptr noundef @.str.330)
  %13 = load ptr, ptr %1, align 8
  call void @prefs_register_bool_preference(ptr noundef %13, ptr noundef @.str.364, ptr noundef @.str.332, ptr noundef @.str.365, ptr noundef @force_vdp_scms_t)
  %14 = load ptr, ptr %1, align 8
  call void @prefs_register_enum_preference(ptr noundef %14, ptr noundef @.str.366, ptr noundef @.str.335, ptr noundef @.str.367, ptr noundef @force_vdp_codec, ptr noundef @pref_vdp_codec, i1 noundef zeroext false)
  call void @llvm.lifetime.end.p0(i64 8, ptr %2) #7
  call void @llvm.lifetime.end.p0(i64 8, ptr %1) #7
  ret void
}