; Function Attrs: null_pointer_is_valid sspstrong uwtable
define hidden void @proto_register_btvdp() local_unnamed_addr #0 {
  %1 = tail call i32 @proto_register_protocol(ptr noundef nonnull @.str.359, ptr noundef nonnull @.str.360, ptr noundef nonnull @.str.361)
  store i32 %1, ptr @proto_btvdp, align 4
  %2 = tail call ptr @register_dissector(ptr noundef nonnull @.str.361, ptr noundef nonnull @dissect_btvdp, i32 noundef %1)
  store ptr %2, ptr @btvdp_handle, align 8
  %3 = load i32, ptr @proto_btvdp, align 4
  tail call void @proto_register_field_array(i32 noundef %3, ptr noundef nonnull @proto_register_btvdp.hf, i32 noundef 9)
  tail call void @proto_register_subtree_array(ptr noundef nonnull @proto_register_btvdp.ett, i32 noundef 1)
  %4 = load i32, ptr @proto_btvdp, align 4
  %5 = tail call ptr @expert_register_protocol(i32 noundef %4)
  tail call void @expert_register_field_array(ptr noundef %5, ptr noundef nonnull @proto_register_btvdp.ei, i32 noundef 3)
  %6 = load i32, ptr @proto_btvdp, align 4
  %7 = tail call ptr @prefs_register_protocol_subtree(ptr noundef nonnull @.str.255, i32 noundef %6, ptr noundef null)
  tail call void @prefs_register_static_text_preference(ptr noundef %7, ptr noundef nonnull @.str.362, ptr noundef nonnull @.str.363, ptr noundef nonnull @.str.330)
  tail call void @prefs_register_bool_preference(ptr noundef %7, ptr noundef nonnull @.str.364, ptr noundef nonnull @.str.332, ptr noundef nonnull @.str.365, ptr noundef nonnull @force_vdp_scms_t)
  tail call void @prefs_register_enum_preference(ptr noundef %7, ptr noundef nonnull @.str.366, ptr noundef nonnull @.str.335, ptr noundef nonnull @.str.367, ptr noundef nonnull @force_vdp_codec, ptr noundef nonnull @pref_vdp_codec, i1 noundef zeroext false)
  ret void
}